target datalayout = "e-m:e-p270:32:32-p271:32:32-p272:64:64-i64:64-i128:128-f80:128-n8:16:32:64-S128"
target triple = "x86_64-pc-linux-gnu"

%struct.digestdata = type { ptr, ptr, ptr, ptr, ptr, ptr, i32, i8, i8 }

; Function Attrs: nounwind uwtable
define hidden i32 @Curl_auth_create_digest_http_message(ptr noundef %0, ptr noundef %1, ptr noundef %2, ptr noundef %3, ptr noundef %4, ptr noundef %5, ptr noundef %6, ptr noundef %7) #0 {
  %9 = alloca i32, align 4
  %10 = alloca ptr, align 8
  %11 = alloca ptr, align 8
  %12 = alloca ptr, align 8
  %13 = alloca ptr, align 8
  %14 = alloca ptr, align 8
  %15 = alloca ptr, align 8
  %16 = alloca ptr, align 8
  %17 = alloca ptr, align 8
  store ptr %0, ptr %10, align 8, !tbaa !20
  store ptr %1, ptr %11, align 8, !tbaa !3
  store ptr %2, ptr %12, align 8, !tbaa !3
  store ptr %3, ptr %13, align 8, !tbaa !3
  store ptr %4, ptr %14, align 8, !tbaa !3
  store ptr %5, ptr %15, align 8, !tbaa !110
  store ptr %6, ptr %16, align 8, !tbaa !8
  store ptr %7, ptr %17, align 8, !tbaa !124
  %18 = load ptr, ptr %15, align 8, !tbaa !110
  %19 = getelementptr inbounds nuw %struct.digestdata, ptr %18, i32 0, i32 7
  %20 = load i8, ptr %19, align 4, !tbaa !121
  %21 = zext i8 %20 to i32
  %22 = icmp sle i32 %21, 1
  br i1 %22, label %23, label %33

23:                                               ; preds = %8
  %24 = load ptr, ptr %10, align 8, !tbaa !20
  %25 = load ptr, ptr %11, align 8, !tbaa !3
  %26 = load ptr, ptr %12, align 8, !tbaa !3
  %27 = load ptr, ptr %13, align 8, !tbaa !3
  %28 = load ptr, ptr %14, align 8, !tbaa !3
  %29 = load ptr, ptr %15, align 8, !tbaa !110
  %30 = load ptr, ptr %16, align 8, !tbaa !8
  %31 = load ptr, ptr %17, align 8, !tbaa !124
  %32 = call i32 @auth_create_digest_http_message(ptr noundef %24, ptr noundef %25, ptr noundef %26, ptr noundef %27, ptr noundef %28, ptr noundef %29, ptr noundef %30, ptr noundef %31, ptr noundef @auth_digest_md5_to_ascii, ptr noundef @Curl_md5it)
  store i32 %32, ptr %9, align 4
  br label %66

33:                                               ; preds = %8
  %34 = load ptr, ptr %15, align 8, !tbaa !110
  %35 = getelementptr inbounds nuw %struct.digestdata, ptr %34, i32 0, i32 7
  %36 = load i8, ptr %35, align 4, !tbaa !121
  %37 = zext i8 %36 to i32
  %38 = icmp sle i32 %37, 3
  br i1 %38, label %39, label %49

39:                                               ; preds = %33
  %40 = load ptr, ptr %10, align 8, !tbaa !20
  %41 = load ptr, ptr %11, align 8, !tbaa !3
  %42 = load ptr, ptr %12, align 8, !tbaa !3
  %43 = load ptr, ptr %13, align 8, !tbaa !3
  %44 = load ptr, ptr %14, align 8, !tbaa !3
  %45 = load ptr, ptr %15, align 8, !tbaa !110
  %46 = load ptr, ptr %16, align 8, !tbaa !8
  %47 = load ptr, ptr %17, align 8, !tbaa !124
  %48 = call i32 @auth_create_digest_http_message(ptr noundef %40, ptr noundef %41, ptr noundef %42, ptr noundef %43, ptr noundef %44, ptr noundef %45, ptr noundef %46, ptr noundef %47, ptr noundef @auth_digest_sha256_to_ascii, ptr noundef @Curl_sha256it)
  store i32 %48, ptr %9, align 4
  br label %66

49:                                               ; preds = %33
  %50 = load ptr, ptr %15, align 8, !tbaa !110
  %51 = getelementptr inbounds nuw %struct.digestdata, ptr %50, i32 0, i32 7
  %52 = load i8, ptr %51, align 4, !tbaa !121
  %53 = zext i8 %52 to i32
  %54 = icmp sle i32 %53, 5
  br i1 %54, label %55, label %65

55:                                               ; preds = %49
  %56 = load ptr, ptr %10, align 8, !tbaa !20
  %57 = load ptr, ptr %11, align 8, !tbaa !3
  %58 = load ptr, ptr %12, align 8, !tbaa !3
  %59 = load ptr, ptr %13, align 8, !tbaa !3
  %60 = load ptr, ptr %14, align 8, !tbaa !3
  %61 = load ptr, ptr %15, align 8, !tbaa !110
  %62 = load ptr, ptr %16, align 8, !tbaa !8
  %63 = load ptr, ptr %17, align 8, !tbaa !124
  %64 = call i32 @auth_create_digest_http_message(ptr noundef %56, ptr noundef %57, ptr noundef %58, ptr noundef %59, ptr noundef %60, ptr noundef %61, ptr noundef %62, ptr noundef %63, ptr noundef @auth_digest_sha256_to_ascii, ptr noundef @Curl_sha512_256it)
  store i32 %64, ptr %9, align 4
  br label %66

65:                                               ; preds = %49
  store i32 61, ptr %9, align 4
  br label %66

66:                                               ; preds = %65, %55, %39, %23
  %67 = load i32, ptr %9, align 4
  ret i32 %67
}