; Function Attrs: nounwind uwtable
define hidden i32 @Curl_auth_create_digest_http_message(ptr noundef %0, ptr noundef %1, ptr noundef %2, ptr noundef %3, ptr noundef %4, ptr noundef captures(none) %5, ptr noundef writeonly captures(none) %6, ptr noundef writeonly captures(none) %7) local_unnamed_addr #3 {
  %9 = getelementptr inbounds nuw i8, ptr %5, i64 52
  %10 = load i8, ptr %9, align 4, !tbaa !101
  %11 = icmp ult i8 %10, 2
  br i1 %11, label %12, label %14

12:                                               ; preds = %8
  %13 = tail call fastcc i32 @auth_create_digest_http_message(ptr noundef %0, ptr noundef %1, ptr noundef %2, ptr noundef %3, ptr noundef %4, ptr noundef nonnull %5, ptr noundef %6, ptr noundef %7, ptr noundef nonnull @auth_digest_md5_to_ascii, ptr noundef nonnull @Curl_md5it)
  br label %22

14:                                               ; preds = %8
  %15 = icmp ult i8 %10, 4
  br i1 %15, label %16, label %18

16:                                               ; preds = %14
  %17 = tail call fastcc i32 @auth_create_digest_http_message(ptr noundef %0, ptr noundef %1, ptr noundef %2, ptr noundef %3, ptr noundef %4, ptr noundef nonnull %5, ptr noundef %6, ptr noundef %7, ptr noundef nonnull @auth_digest_sha256_to_ascii, ptr noundef nonnull @Curl_sha256it)
  br label %22

18:                                               ; preds = %14
  %19 = icmp ult i8 %10, 6
  br i1 %19, label %20, label %22

20:                                               ; preds = %18
  %21 = tail call fastcc i32 @auth_create_digest_http_message(ptr noundef %0, ptr noundef %1, ptr noundef %2, ptr noundef %3, ptr noundef %4, ptr noundef nonnull %5, ptr noundef %6, ptr noundef %7, ptr noundef nonnull @auth_digest_sha256_to_ascii, ptr noundef nonnull @Curl_sha512_256it)
  br label %22

22:                                               ; preds = %18, %20, %16, %12
  %.0 = phi i32 [ %13, %12 ], [ %17, %16 ], [ %21, %20 ], [ 61, %18 ]
  ret i32 %.0
}